; Function Attrs: mustprogress uwtable
define hidden noundef i64 @_ZNK12opencv_caffe19HDF5OutputParameter12ByteSizeLongEv(ptr noundef nonnull align 8 dereferenceable(32) %0) unnamed_addr #3 align 2 {
  %2 = getelementptr inbounds nuw i8, ptr %0, i64 16
  %3 = load i32, ptr %2, align 8, !tbaa !71
  %4 = and i32 %3, 1
  %.not = icmp eq i32 %4, 0
  br i1 %.not, label %23, label %5

5:                                                ; preds = %1
  %6 = getelementptr inbounds nuw i8, ptr %0, i64 24
  %7 = load ptr, ptr %6, align 8, !tbaa !70
  %8 = ptrtoint ptr %7 to i64
  %9 = and i64 %8, -2
  %10 = inttoptr i64 %9 to ptr
  %11 = getelementptr inbounds nuw i8, ptr %10, i64 8
  %12 = load i64, ptr %11, align 8, !tbaa !72
  %13 = trunc i64 %12 to i32
  %14 = or i32 %13, 1
  %15 = tail call range(i32 0, 33) i32 @llvm.ctlz.i32(i32 %14, i1 true)
  %16 = xor i32 %15, 31
  %17 = mul nuw nsw i32 %16, 9
  %18 = add nuw nsw i32 %17, 73
  %19 = lshr i32 %18, 6
  %20 = zext nneg i32 %19 to i64
  %21 = add i64 %12, 1
  %22 = add i64 %21, %20
  br label %23

23:                                               ; preds = %5, %1
  %.0 = phi i64 [ %22, %5 ], [ 0, %1 ]
  %24 = getelementptr inbounds nuw i8, ptr %0, i64 20
  %25 = tail call noundef i64 @_ZNK6google8protobuf7Message29MaybeComputeUnknownFieldsSizeEmPNS0_8internal10CachedSizeE(ptr noundef nonnull align 8 dereferenceable(16) %0, i64 noundef %.0, ptr noundef nonnull %24)
  ret i64 %25
}